; ModuleID = 'source-C-CXX/11/1384.cpp'
source_filename = "source-C-CXX/11/1384.cpp"
target datalayout = "e-m:e-p270:32:32-p271:32:32-p272:64:64-i64:64-f80:128-n8:16:32:64-S128"
target triple = "x86_64-pc-linux-gnu"

%"class.std::ios_base::Init" = type { i8 }
%"class.std::basic_istream" = type { i32 (...)**, i64, %"class.std::basic_ios" }
%"class.std::basic_ios" = type { %"class.std::ios_base", %"class.std::basic_ostream"*, i8, i8, %"class.std::basic_streambuf"*, %"class.std::ctype"*, %"class.std::num_put"*, %"class.std::num_get"* }
%"class.std::ios_base" = type { i32 (...)**, i64, i64, i32, i32, i32, %"struct.std::ios_base::_Callback_list"*, %"struct.std::ios_base::_Words", [8 x %"struct.std::ios_base::_Words"], i32, %"struct.std::ios_base::_Words"*, %"class.std::locale" }
%"struct.std::ios_base::_Callback_list" = type { %"struct.std::ios_base::_Callback_list"*, void (i32, %"class.std::ios_base"*, i32)*, i32, i32 }
%"struct.std::ios_base::_Words" = type { i8*, i64 }
%"class.std::locale" = type { %"class.std::locale::_Impl"* }
%"class.std::locale::_Impl" = type { i32, %"class.std::locale::facet"**, i64, %"class.std::locale::facet"**, i8** }
%"class.std::locale::facet" = type <{ i32 (...)**, i32, [4 x i8] }>
%"class.std::basic_ostream" = type { i32 (...)**, %"class.std::basic_ios" }
%"class.std::basic_streambuf" = type { i32 (...)**, i8*, i8*, i8*, i8*, i8*, i8*, %"class.std::locale" }
%"class.std::ctype" = type <{ %"class.std::locale::facet.base", [4 x i8], %struct.__locale_struct*, i8, [7 x i8], i32*, i32*, i16*, i8, [256 x i8], [256 x i8], i8, [6 x i8] }>
%"class.std::locale::facet.base" = type <{ i32 (...)**, i32 }>
%struct.__locale_struct = type { [13 x %struct.__locale_data*], i16*, i32*, i32*, [13 x i8*] }
%struct.__locale_data = type opaque
%"class.std::num_put" = type { %"class.std::locale::facet.base", [4 x i8] }
%"class.std::num_get" = type { %"class.std::locale::facet.base", [4 x i8] }

@_ZStL8__ioinit = internal global %"class.std::ios_base::Init" zeroinitializer, align 1
@__dso_handle = external hidden global i8
@_ZSt3cin = external global %"class.std::basic_istream", align 8
@_ZSt4cout = external global %"class.std::basic_ostream", align 8
@llvm.global_ctors = appending global [1 x { i32, void ()*, i8* }] [{ i32, void ()*, i8* } { i32 65535, void ()* @_GLOBAL__sub_I_1384.cpp, i8* null }]

declare void @_ZNSt8ios_base4InitC1Ev(%"class.std::ios_base::Init"* nonnull align 1 dereferenceable(1)) unnamed_addr #0

; Function Attrs: nounwind
declare void @_ZNSt8ios_base4InitD1Ev(%"class.std::ios_base::Init"* nonnull align 1 dereferenceable(1)) unnamed_addr #1

; Function Attrs: nofree nounwind
declare i32 @__cxa_atexit(void (i8*)*, i8*, i8*) local_unnamed_addr #2

; Function Attrs: mustprogress norecurse sspstrong uwtable
define dso_local i32 @main() local_unnamed_addr #3 {
  %1 = alloca i32, align 4
  %2 = alloca [15 x double], align 16
  %3 = bitcast i32* %1 to i8*
  call void @llvm.lifetime.start.p0i8(i64 4, i8* nonnull %3) #8
  %4 = bitcast [15 x double]* %2 to i8*
  call void @llvm.lifetime.start.p0i8(i64 120, i8* nonnull %4) #8
  %5 = getelementptr inbounds [15 x double], [15 x double]* %2, i64 0, i64 0
  %6 = call nonnull align 8 dereferenceable(16) %"class.std::basic_istream"* @_ZNSirsERi(%"class.std::basic_istream"* nonnull align 8 dereferenceable(16) @_ZSt3cin, i32* nonnull align 4 dereferenceable(4) %1)
  %7 = load i32, i32* %1, align 4, !tbaa !5
  %8 = icmp eq i32 %7, -1
  br i1 %8, label %145, label %9

9:                                                ; preds = %0, %138
  %10 = phi i32 [ %143, %138 ], [ %7, %0 ]
  %11 = sitofp i32 %10 to double
  store double %11, double* %5, align 16, !tbaa !9
  br label %12

12:                                               ; preds = %9, %78
  %13 = phi i64 [ 0, %9 ], [ %83, %78 ]
  %14 = phi i64 [ 2, %9 ], [ %81, %78 ]
  %15 = phi i64 [ 1, %9 ], [ %82, %78 ]
  %16 = phi i32 [ 0, %9 ], [ %79, %78 ]
  %17 = add i64 %13, 1
  %18 = call nonnull align 8 dereferenceable(16) %"class.std::basic_istream"* @_ZNSirsERi(%"class.std::basic_istream"* nonnull align 8 dereferenceable(16) @_ZSt3cin, i32* nonnull align 4 dereferenceable(4) %1)
  %19 = load i32, i32* %1, align 4, !tbaa !5
  %20 = sitofp i32 %19 to double
  %21 = add nsw i64 %14, -1
  %22 = getelementptr inbounds [15 x double], [15 x double]* %2, i64 0, i64 %21
  store double %20, double* %22, align 8, !tbaa !9
  %23 = icmp ult i64 %17, 4
  br i1 %23, label %61, label %24

24:                                               ; preds = %12
  %25 = and i64 %17, -4
  %26 = insertelement <2 x i32> <i32 poison, i32 0>, i32 %16, i32 0
  %27 = insertelement <2 x double> poison, double %20, i32 0
  %28 = shufflevector <2 x double> %27, <2 x double> poison, <2 x i32> zeroinitializer
  %29 = insertelement <2 x double> poison, double %20, i32 0
  %30 = shufflevector <2 x double> %29, <2 x double> poison, <2 x i32> zeroinitializer
  br label %31

31:                                               ; preds = %31, %24
  %32 = phi i64 [ 0, %24 ], [ %55, %31 ]
  %33 = phi <2 x i32> [ %26, %24 ], [ %53, %31 ]
  %34 = phi <2 x i32> [ zeroinitializer, %24 ], [ %54, %31 ]
  %35 = getelementptr inbounds [15 x double], [15 x double]* %2, i64 0, i64 %32
  %36 = bitcast double* %35 to <2 x double>*
  %37 = load <2 x double>, <2 x double>* %36, align 16, !tbaa !9
  %38 = getelementptr inbounds double, double* %35, i64 2
  %39 = bitcast double* %38 to <2 x double>*
  %40 = load <2 x double>, <2 x double>* %39, align 16, !tbaa !9
  %41 = fmul <2 x double> %37, <double 2.000000e+00, double 2.000000e+00>
  %42 = fmul <2 x double> %40, <double 2.000000e+00, double 2.000000e+00>
  %43 = fcmp oeq <2 x double> %41, %28
  %44 = fcmp oeq <2 x double> %42, %30
  %45 = fmul <2 x double> %37, <double 5.000000e-01, double 5.000000e-01>
  %46 = fmul <2 x double> %40, <double 5.000000e-01, double 5.000000e-01>
  %47 = fcmp oeq <2 x double> %45, %28
  %48 = fcmp oeq <2 x double> %46, %30
  %49 = or <2 x i1> %43, %47
  %50 = or <2 x i1> %44, %48
  %51 = zext <2 x i1> %49 to <2 x i32>
  %52 = zext <2 x i1> %50 to <2 x i32>
  %53 = add <2 x i32> %33, %51
  %54 = add <2 x i32> %34, %52
  %55 = add nuw i64 %32, 4
  %56 = icmp eq i64 %55, %25
  br i1 %56, label %57, label %31, !llvm.loop !11

57:                                               ; preds = %31
  %58 = add <2 x i32> %54, %53
  %59 = call i32 @llvm.vector.reduce.add.v2i32(<2 x i32> %58)
  %60 = icmp eq i64 %17, %25
  br i1 %60, label %78, label %61

61:                                               ; preds = %12, %57
  %62 = phi i64 [ 0, %12 ], [ %25, %57 ]
  %63 = phi i32 [ %16, %12 ], [ %59, %57 ]
  br label %64

64:                                               ; preds = %61, %64
  %65 = phi i64 [ %76, %64 ], [ %62, %61 ]
  %66 = phi i32 [ %75, %64 ], [ %63, %61 ]
  %67 = getelementptr inbounds [15 x double], [15 x double]* %2, i64 0, i64 %65
  %68 = load double, double* %67, align 8, !tbaa !9
  %69 = fmul double %68, 2.000000e+00
  %70 = fcmp oeq double %69, %20
  %71 = fmul double %68, 5.000000e-01
  %72 = fcmp oeq double %71, %20
  %73 = or i1 %70, %72
  %74 = zext i1 %73 to i32
  %75 = add nsw i32 %66, %74
  %76 = add nuw nsw i64 %65, 1
  %77 = icmp eq i64 %76, %15
  br i1 %77, label %78, label %64, !llvm.loop !14

78:                                               ; preds = %64, %57
  %79 = phi i32 [ %59, %57 ], [ %75, %64 ]
  %80 = icmp eq i32 %19, 0
  %81 = add nuw i64 %14, 1
  %82 = add nuw nsw i64 %15, 1
  %83 = add i64 %13, 1
  br i1 %80, label %84, label %12, !llvm.loop !16

84:                                               ; preds = %78
  %85 = load i8*, i8** bitcast (%"class.std::basic_ostream"* @_ZSt4cout to i8**), align 8, !tbaa !17
  %86 = getelementptr i8, i8* %85, i64 -24
  %87 = bitcast i8* %86 to i64*
  %88 = load i64, i64* %87, align 8
  %89 = add nsw i64 %88, 240
  %90 = getelementptr inbounds i8, i8* bitcast (%"class.std::basic_ostream"* @_ZSt4cout to i8*), i64 %89
  %91 = bitcast i8* %90 to %"class.std::ctype"**
  %92 = load %"class.std::ctype"*, %"class.std::ctype"** %91, align 8, !tbaa !19
  %93 = icmp eq %"class.std::ctype"* %92, null
  br i1 %93, label %94, label %95

94:                                               ; preds = %84
  call void @_ZSt16__throw_bad_castv() #9
  unreachable

95:                                               ; preds = %84
  %96 = getelementptr inbounds %"class.std::ctype", %"class.std::ctype"* %92, i64 0, i32 8
  %97 = load i8, i8* %96, align 8, !tbaa !23
  %98 = icmp eq i8 %97, 0
  br i1 %98, label %102, label %99

99:                                               ; preds = %95
  %100 = getelementptr inbounds %"class.std::ctype", %"class.std::ctype"* %92, i64 0, i32 9, i64 10
  %101 = load i8, i8* %100, align 1, !tbaa !25
  br label %108

102:                                              ; preds = %95
  call void @_ZNKSt5ctypeIcE13_M_widen_initEv(%"class.std::ctype"* nonnull align 8 dereferenceable(570) %92)
  %103 = bitcast %"class.std::ctype"* %92 to i8 (%"class.std::ctype"*, i8)***
  %104 = load i8 (%"class.std::ctype"*, i8)**, i8 (%"class.std::ctype"*, i8)*** %103, align 8, !tbaa !17
  %105 = getelementptr inbounds i8 (%"class.std::ctype"*, i8)*, i8 (%"class.std::ctype"*, i8)** %104, i64 6
  %106 = load i8 (%"class.std::ctype"*, i8)*, i8 (%"class.std::ctype"*, i8)** %105, align 8
  %107 = call signext i8 %106(%"class.std::ctype"* nonnull align 8 dereferenceable(570) %92, i8 signext 10)
  br label %108

108:                                              ; preds = %99, %102
  %109 = phi i8 [ %101, %99 ], [ %107, %102 ]
  %110 = call nonnull align 8 dereferenceable(8) %"class.std::basic_ostream"* @_ZNSo3putEc(%"class.std::basic_ostream"* nonnull align 8 dereferenceable(8) @_ZSt4cout, i8 signext %109)
  %111 = call nonnull align 8 dereferenceable(8) %"class.std::basic_ostream"* @_ZNSo5flushEv(%"class.std::basic_ostream"* nonnull align 8 dereferenceable(8) %110)
  %112 = call nonnull align 8 dereferenceable(8) %"class.std::basic_ostream"* @_ZNSolsEi(%"class.std::basic_ostream"* nonnull align 8 dereferenceable(8) %111, i32 %79)
  %113 = bitcast %"class.std::basic_ostream"* %112 to i8**
  %114 = load i8*, i8** %113, align 8, !tbaa !17
  %115 = getelementptr i8, i8* %114, i64 -24
  %116 = bitcast i8* %115 to i64*
  %117 = load i64, i64* %116, align 8
  %118 = bitcast %"class.std::basic_ostream"* %112 to i8*
  %119 = add nsw i64 %117, 240
  %120 = getelementptr inbounds i8, i8* %118, i64 %119
  %121 = bitcast i8* %120 to %"class.std::ctype"**
  %122 = load %"class.std::ctype"*, %"class.std::ctype"** %121, align 8, !tbaa !19
  %123 = icmp eq %"class.std::ctype"* %122, null
  br i1 %123, label %124, label %125

124:                                              ; preds = %108
  call void @_ZSt16__throw_bad_castv() #9
  unreachable

125:                                              ; preds = %108
  %126 = getelementptr inbounds %"class.std::ctype", %"class.std::ctype"* %122, i64 0, i32 8
  %127 = load i8, i8* %126, align 8, !tbaa !23
  %128 = icmp eq i8 %127, 0
  br i1 %128, label %132, label %129

129:                                              ; preds = %125
  %130 = getelementptr inbounds %"class.std::ctype", %"class.std::ctype"* %122, i64 0, i32 9, i64 10
  %131 = load i8, i8* %130, align 1, !tbaa !25
  br label %138

132:                                              ; preds = %125
  call void @_ZNKSt5ctypeIcE13_M_widen_initEv(%"class.std::ctype"* nonnull align 8 dereferenceable(570) %122)
  %133 = bitcast %"class.std::ctype"* %122 to i8 (%"class.std::ctype"*, i8)***
  %134 = load i8 (%"class.std::ctype"*, i8)**, i8 (%"class.std::ctype"*, i8)*** %133, align 8, !tbaa !17
  %135 = getelementptr inbounds i8 (%"class.std::ctype"*, i8)*, i8 (%"class.std::ctype"*, i8)** %134, i64 6
  %136 = load i8 (%"class.std::ctype"*, i8)*, i8 (%"class.std::ctype"*, i8)** %135, align 8
  %137 = call signext i8 %136(%"class.std::ctype"* nonnull align 8 dereferenceable(570) %122, i8 signext 10)
  br label %138

138:                                              ; preds = %129, %132
  %139 = phi i8 [ %131, %129 ], [ %137, %132 ]
  %140 = call nonnull align 8 dereferenceable(8) %"class.std::basic_ostream"* @_ZNSo3putEc(%"class.std::basic_ostream"* nonnull align 8 dereferenceable(8) %112, i8 signext %139)
  %141 = call nonnull align 8 dereferenceable(8) %"class.std::basic_ostream"* @_ZNSo5flushEv(%"class.std::basic_ostream"* nonnull align 8 dereferenceable(8) %140)
  %142 = call nonnull align 8 dereferenceable(16) %"class.std::basic_istream"* @_ZNSirsERi(%"class.std::basic_istream"* nonnull align 8 dereferenceable(16) @_ZSt3cin, i32* nonnull align 4 dereferenceable(4) %1)
  %143 = load i32, i32* %1, align 4, !tbaa !5
  %144 = icmp eq i32 %143, -1
  br i1 %144, label %145, label %9, !llvm.loop !26

145:                                              ; preds = %138, %0
  call void @llvm.lifetime.end.p0i8(i64 120, i8* nonnull %4) #8
  call void @llvm.lifetime.end.p0i8(i64 4, i8* nonnull %3) #8
  ret i32 0
}

; Function Attrs: argmemonly mustprogress nofree nosync nounwind willreturn
declare void @llvm.lifetime.start.p0i8(i64 immarg, i8* nocapture) #4

declare nonnull align 8 dereferenceable(16) %"class.std::basic_istream"* @_ZNSirsERi(%"class.std::basic_istream"* nonnull align 8 dereferenceable(16), i32* nonnull align 4 dereferenceable(4)) local_unnamed_addr #0

declare nonnull align 8 dereferenceable(8) %"class.std::basic_ostream"* @_ZNSolsEi(%"class.std::basic_ostream"* nonnull align 8 dereferenceable(8), i32) local_unnamed_addr #0

; Function Attrs: argmemonly mustprogress nofree nosync nounwind willreturn
declare void @llvm.lifetime.end.p0i8(i64 immarg, i8* nocapture) #4

declare nonnull align 8 dereferenceable(8) %"class.std::basic_ostream"* @_ZNSo3putEc(%"class.std::basic_ostream"* nonnull align 8 dereferenceable(8), i8 signext) local_unnamed_addr #0

declare nonnull align 8 dereferenceable(8) %"class.std::basic_ostream"* @_ZNSo5flushEv(%"class.std::basic_ostream"* nonnull align 8 dereferenceable(8)) local_unnamed_addr #0

; Function Attrs: noreturn
declare void @_ZSt16__throw_bad_castv() local_unnamed_addr #5

declare void @_ZNKSt5ctypeIcE13_M_widen_initEv(%"class.std::ctype"* nonnull align 8 dereferenceable(570)) local_unnamed_addr #0

; Function Attrs: sspstrong uwtable
define internal void @_GLOBAL__sub_I_1384.cpp() #6 section ".text.startup" {
  tail call void @_ZNSt8ios_base4InitC1Ev(%"class.std::ios_base::Init"* nonnull align 1 dereferenceable(1) @_ZStL8__ioinit)
  %1 = tail call i32 @__cxa_atexit(void (i8*)* bitcast (void (%"class.std::ios_base::Init"*)* @_ZNSt8ios_base4InitD1Ev to void (i8*)*), i8* getelementptr inbounds (%"class.std::ios_base::Init", %"class.std::ios_base::Init"* @_ZStL8__ioinit, i64 0, i32 0), i8* nonnull @__dso_handle) #8
  ret void
}

; Function Attrs: nofree nosync nounwind readnone willreturn
declare i32 @llvm.vector.reduce.add.v2i32(<2 x i32>) #7


!llvm.module.flags = !{!0, !1, !2, !3}
!llvm.ident = !{!4}

!0 = !{i32 1, !"wchar_size", i32 4}
!1 = !{i32 7, !"PIC Level", i32 2}
!2 = !{i32 7, !"PIE Level", i32 2}
!3 = !{i32 7, !"uwtable", i32 1}
!4 = !{!"clang version 13.0.0"}
!5 = !{!6, !6, i64 0}
!6 = !{!"int", !7, i64 0}
!7 = !{!"omnipotent char", !8, i64 0}
!8 = !{!"Simple C++ TBAA"}
!9 = !{!10, !10, i64 0}
!10 = !{!"double", !7, i64 0}
!11 = distinct !{!11, !12, !13}
!12 = !{!"llvm.loop.mustprogress"}
!13 = !{!"llvm.loop.isvectorized", i32 1}
!14 = distinct !{!14, !12, !15, !13}
!15 = !{!"llvm.loop.unroll.runtime.disable"}
!16 = distinct !{!16, !12}
!17 = !{!18, !18, i64 0}
!18 = !{!"vtable pointer", !8, i64 0}
!19 = !{!20, !21, i64 240}
!20 = !{!"_ZTSSt9basic_iosIcSt11char_traitsIcEE", !21, i64 216, !7, i64 224, !22, i64 225, !21, i64 232, !21, i64 240, !21, i64 248, !21, i64 256}
!21 = !{!"any pointer", !7, i64 0}
!22 = !{!"bool", !7, i64 0}
!23 = !{!24, !7, i64 56}
!24 = !{!"_ZTSSt5ctypeIcE", !21, i64 16, !22, i64 24, !21, i64 32, !21, i64 40, !21, i64 48, !7, i64 56, !7, i64 57, !7, i64 313, !7, i64 569}
!25 = !{!7, !7, i64 0}
!26 = distinct !{!26, !12}
